target datalayout = "e-m:e-p270:32:32-p271:32:32-p272:64:64-i64:64-i128:128-f80:128-n8:16:32:64-S128"
target triple = "x86_64-pc-linux-gnu"

; Function Attrs: nounwind uwtable
define internal i64 @EncodeCodepointToUtf8(ptr noundef %0, i32 noundef %1, i64 noundef %2) #0 {
  %4 = alloca i64, align 8
  %5 = alloca ptr, align 8
  %6 = alloca i32, align 4
  %7 = alloca i64, align 8
  store ptr %0, ptr %5, align 8
  store i32 %1, ptr %6, align 4
  store i64 %2, ptr %7, align 8
  %8 = load i32, ptr %6, align 4
  %9 = icmp ult i32 %8, 128
  br i1 %9, label %10, label %18

10:                                               ; preds = %3
  %11 = load i64, ptr %7, align 8
  %12 = icmp ne i64 %11, 0
  br i1 %12, label %13, label %17

13:                                               ; preds = %10
  %14 = load i32, ptr %6, align 4
  %15 = trunc i32 %14 to i8
  %16 = load ptr, ptr %5, align 8
  store i8 %15, ptr %16, align 1
  store i64 1, ptr %4, align 8
  br label %121

17:                                               ; preds = %10
  br label %120

18:                                               ; preds = %3
  %19 = load i32, ptr %6, align 4
  %20 = icmp ult i32 %19, 2048
  br i1 %20, label %21, label %41

21:                                               ; preds = %18
  %22 = load i64, ptr %7, align 8
  %23 = icmp uge i64 %22, 2
  br i1 %23, label %24, label %40

24:                                               ; preds = %21
  %25 = load i32, ptr %6, align 4
  %26 = lshr i32 %25, 6
  %27 = or i32 %26, 128
  %28 = or i32 %27, 64
  %29 = trunc i32 %28 to i8
  %30 = load ptr, ptr %5, align 8
  %31 = getelementptr inbounds i8, ptr %30, i64 0
  store i8 %29, ptr %31, align 1
  %32 = load i32, ptr %6, align 4
  %33 = and i32 %32, 63
  %34 = trunc i32 %33 to i8
  %35 = sext i8 %34 to i32
  %36 = or i32 %35, 128
  %37 = trunc i32 %36 to i8
  %38 = load ptr, ptr %5, align 8
  %39 = getelementptr inbounds i8, ptr %38, i64 1
  store i8 %37, ptr %39, align 1
  store i64 2, ptr %4, align 8
  br label %121

40:                                               ; preds = %21
  br label %119

41:                                               ; preds = %18
  %42 = load i32, ptr %6, align 4
  %43 = icmp ult i32 %42, 65536
  br i1 %43, label %44, label %74

44:                                               ; preds = %41
  %45 = load i64, ptr %7, align 8
  %46 = icmp uge i64 %45, 3
  br i1 %46, label %47, label %73

47:                                               ; preds = %44
  %48 = load i32, ptr %6, align 4
  %49 = lshr i32 %48, 12
  %50 = or i32 %49, 128
  %51 = or i32 %50, 64
  %52 = or i32 %51, 32
  %53 = trunc i32 %52 to i8
  %54 = load ptr, ptr %5, align 8
  %55 = getelementptr inbounds i8, ptr %54, i64 0
  store i8 %53, ptr %55, align 1
  %56 = load i32, ptr %6, align 4
  %57 = lshr i32 %56, 6
  %58 = and i32 %57, 63
  %59 = trunc i32 %58 to i8
  %60 = sext i8 %59 to i32
  %61 = or i32 %60, 128
  %62 = trunc i32 %61 to i8
  %63 = load ptr, ptr %5, align 8
  %64 = getelementptr inbounds i8, ptr %63, i64 1
  store i8 %62, ptr %64, align 1
  %65 = load i32, ptr %6, align 4
  %66 = and i32 %65, 63
  %67 = trunc i32 %66 to i8
  %68 = sext i8 %67 to i32
  %69 = or i32 %68, 128
  %70 = trunc i32 %69 to i8
  %71 = load ptr, ptr %5, align 8
  %72 = getelementptr inbounds i8, ptr %71, i64 2
  store i8 %70, ptr %72, align 1
  store i64 3, ptr %4, align 8
  br label %121

73:                                               ; preds = %44
  br label %118

74:                                               ; preds = %41
  %75 = load i32, ptr %6, align 4
  %76 = icmp ule i32 %75, 1114111
  br i1 %76, label %77, label %117

77:                                               ; preds = %74
  %78 = load i64, ptr %7, align 8
  %79 = icmp uge i64 %78, 4
  br i1 %79, label %80, label %116

80:                                               ; preds = %77
  %81 = load i32, ptr %6, align 4
  %82 = lshr i32 %81, 18
  %83 = or i32 %82, 128
  %84 = or i32 %83, 64
  %85 = or i32 %84, 32
  %86 = or i32 %85, 16
  %87 = trunc i32 %86 to i8
  %88 = load ptr, ptr %5, align 8
  %89 = getelementptr inbounds i8, ptr %88, i64 0
  store i8 %87, ptr %89, align 1
  %90 = load i32, ptr %6, align 4
  %91 = lshr i32 %90, 12
  %92 = and i32 %91, 63
  %93 = trunc i32 %92 to i8
  %94 = sext i8 %93 to i32
  %95 = or i32 %94, 128
  %96 = trunc i32 %95 to i8
  %97 = load ptr, ptr %5, align 8
  %98 = getelementptr inbounds i8, ptr %97, i64 1
  store i8 %96, ptr %98, align 1
  %99 = load i32, ptr %6, align 4
  %100 = lshr i32 %99, 6
  %101 = and i32 %100, 63
  %102 = trunc i32 %101 to i8
  %103 = sext i8 %102 to i32
  %104 = or i32 %103, 128
  %105 = trunc i32 %104 to i8
  %106 = load ptr, ptr %5, align 8
  %107 = getelementptr inbounds i8, ptr %106, i64 2
  store i8 %105, ptr %107, align 1
  %108 = load i32, ptr %6, align 4
  %109 = and i32 %108, 63
  %110 = trunc i32 %109 to i8
  %111 = sext i8 %110 to i32
  %112 = or i32 %111, 128
  %113 = trunc i32 %112 to i8
  %114 = load ptr, ptr %5, align 8
  %115 = getelementptr inbounds i8, ptr %114, i64 3
  store i8 %113, ptr %115, align 1
  store i64 4, ptr %4, align 8
  br label %121

116:                                              ; preds = %77
  br label %117

117:                                              ; preds = %116, %74
  br label %118

118:                                              ; preds = %117, %73
  br label %119

119:                                              ; preds = %118, %40
  br label %120

120:                                              ; preds = %119, %17
  store i64 0, ptr %4, align 8
  br label %121

121:                                              ; preds = %120, %80, %47, %24, %13
  %122 = load i64, ptr %4, align 8
  ret i64 %122
}

; Function Attrs: nounwind uwtable
define internal ptr @CaseFoldUtf8String(ptr noundef %0) #0 {
  %2 = alloca ptr, align 8
  %3 = alloca ptr, align 8
  %4 = alloca i64, align 8
  %5 = alloca ptr, align 8
  %6 = alloca i32, align 4
  %7 = alloca i32, align 4
  %8 = alloca ptr, align 8
  %9 = alloca i64, align 8
  %10 = alloca [3 x i32], align 4
  %11 = alloca i32, align 4
  %12 = alloca i32, align 4
  %13 = alloca i64, align 8
  store ptr %0, ptr %3, align 8
  br label %14

14:                                               ; preds = %1
  br label %15

15:                                               ; preds = %14
  call void @llvm.lifetime.start.p0(i64 8, ptr %4) #5
  %16 = load ptr, ptr %3, align 8
  %17 = call i64 @SDL_strlen_REAL(ptr noundef %16)
  %18 = add i64 %17, 1
  %19 = mul i64 %18, 3
  %20 = mul i64 %19, 4
  store i64 %20, ptr %4, align 8
  call void @llvm.lifetime.start.p0(i64 8, ptr %5) #5
  %21 = load i64, ptr %4, align 8
  %22 = call noalias ptr @SDL_malloc_REAL(i64 noundef %21)
  store ptr %22, ptr %5, align 8
  %23 = load ptr, ptr %5, align 8
  %24 = icmp ne ptr %23, null
  br i1 %24, label %26, label %25

25:                                               ; preds = %15
  store ptr null, ptr %2, align 8
  store i32 1, ptr %6, align 4
  br label %99

26:                                               ; preds = %15
  call void @llvm.lifetime.start.p0(i64 4, ptr %7) #5
  call void @llvm.lifetime.start.p0(i64 8, ptr %8) #5
  %27 = load ptr, ptr %5, align 8
  store ptr %27, ptr %8, align 8
  call void @llvm.lifetime.start.p0(i64 8, ptr %9) #5
  %28 = load i64, ptr %4, align 8
  store i64 %28, ptr %9, align 8
  br label %29

29:                                               ; preds = %73, %26
  %30 = call i32 @SDL_StepUTF8_REAL(ptr noundef %3, ptr noundef null)
  store i32 %30, ptr %7, align 4
  %31 = icmp ne i32 %30, 0
  br i1 %31, label %32, label %74

32:                                               ; preds = %29
  call void @llvm.lifetime.start.p0(i64 12, ptr %10) #5
  call void @llvm.lifetime.start.p0(i64 4, ptr %11) #5
  %33 = load i32, ptr %7, align 4
  %34 = getelementptr inbounds [3 x i32], ptr %10, i64 0, i64 0
  %35 = call i32 @SDL_CaseFoldUnicode(i32 noundef %33, ptr noundef %34)
  store i32 %35, ptr %11, align 4
  br label %36

36:                                               ; preds = %32
  br label %37

37:                                               ; preds = %36
  br label %38

38:                                               ; preds = %37
  br label %39

39:                                               ; preds = %38
  br label %40

40:                                               ; preds = %39
  br label %41

41:                                               ; preds = %40
  call void @llvm.lifetime.start.p0(i64 4, ptr %12) #5
  store i32 0, ptr %12, align 4
  br label %42

42:                                               ; preds = %70, %41
  %43 = load i32, ptr %12, align 4
  %44 = load i32, ptr %11, align 4
  %45 = icmp slt i32 %43, %44
  br i1 %45, label %47, label %46

46:                                               ; preds = %42
  store i32 10, ptr %6, align 4
  call void @llvm.lifetime.end.p0(i64 4, ptr %12) #5
  br label %73

47:                                               ; preds = %42
  br label %48

48:                                               ; preds = %47
  br label %49

49:                                               ; preds = %48
  br label %50

50:                                               ; preds = %49
  call void @llvm.lifetime.start.p0(i64 8, ptr %13) #5
  %51 = load ptr, ptr %8, align 8
  %52 = load i32, ptr %12, align 4
  %53 = sext i32 %52 to i64
  %54 = getelementptr inbounds [3 x i32], ptr %10, i64 0, i64 %53
  %55 = load i32, ptr %54, align 4
  %56 = load i64, ptr %9, align 8
  %57 = call i64 @EncodeCodepointToUtf8(ptr noundef %51, i32 noundef %55, i64 noundef %56)
  store i64 %57, ptr %13, align 8
  br label %58

58:                                               ; preds = %50
  br label %59

59:                                               ; preds = %58
  br label %60

60:                                               ; preds = %59
  br label %61

61:                                               ; preds = %60
  br label %62

62:                                               ; preds = %61
  br label %63

63:                                               ; preds = %62
  %64 = load i64, ptr %13, align 8
  %65 = load i64, ptr %9, align 8
  %66 = sub i64 %65, %64
  store i64 %66, ptr %9, align 8
  %67 = load i64, ptr %13, align 8
  %68 = load ptr, ptr %8, align 8
  %69 = getelementptr inbounds nuw i8, ptr %68, i64 %67
  store ptr %69, ptr %8, align 8
  call void @llvm.lifetime.end.p0(i64 8, ptr %13) #5
  br label %70

70:                                               ; preds = %63
  %71 = load i32, ptr %12, align 4
  %72 = add nsw i32 %71, 1
  store i32 %72, ptr %12, align 4
  br label %42, !llvm.loop !9

73:                                               ; preds = %46
  call void @llvm.lifetime.end.p0(i64 4, ptr %11) #5
  call void @llvm.lifetime.end.p0(i64 12, ptr %10) #5
  br label %29, !llvm.loop !10

74:                                               ; preds = %29
  br label %75

75:                                               ; preds = %74
  br label %76

76:                                               ; preds = %75
  br label %77

77:                                               ; preds = %76
  %78 = load i64, ptr %9, align 8
  %79 = add i64 %78, -1
  store i64 %79, ptr %9, align 8
  %80 = load ptr, ptr %8, align 8
  store i8 0, ptr %80, align 1
  %81 = load i64, ptr %9, align 8
  %82 = icmp ugt i64 %81, 0
  br i1 %82, label %83, label %97

83:                                               ; preds = %77
  br label %84

84:                                               ; preds = %83
  br label %85

85:                                               ; preds = %84
  br label %86

86:                                               ; preds = %85
  %87 = load ptr, ptr %5, align 8
  %88 = load i64, ptr %4, align 8
  %89 = load i64, ptr %9, align 8
  %90 = sub i64 %88, %89
  %91 = call ptr @SDL_realloc_REAL(ptr noundef %87, i64 noundef %90) #6
  store ptr %91, ptr %8, align 8
  %92 = load ptr, ptr %8, align 8
  %93 = icmp ne ptr %92, null
  br i1 %93, label %94, label %96

94:                                               ; preds = %86
  %95 = load ptr, ptr %8, align 8
  store ptr %95, ptr %5, align 8
  br label %96

96:                                               ; preds = %94, %86
  br label %97

97:                                               ; preds = %96, %77
  %98 = load ptr, ptr %5, align 8
  store ptr %98, ptr %2, align 8
  store i32 1, ptr %6, align 4
  call void @llvm.lifetime.end.p0(i64 8, ptr %9) #5
  call void @llvm.lifetime.end.p0(i64 8, ptr %8) #5
  call void @llvm.lifetime.end.p0(i64 4, ptr %7) #5
  br label %99

99:                                               ; preds = %97, %25
  call void @llvm.lifetime.end.p0(i64 8, ptr %5) #5
  call void @llvm.lifetime.end.p0(i64 8, ptr %4) #5
  %100 = load ptr, ptr %2, align 8
  ret ptr %100
}