; Function Attrs: nounwind uwtable
define internal fastcc ptr @CaseFoldUtf8String(ptr noundef %0) unnamed_addr #0 {
  %2 = alloca ptr, align 8
  %3 = alloca [3 x i32], align 4
  store ptr %0, ptr %2, align 8
  %4 = tail call i64 @SDL_strlen_REAL(ptr noundef %0) #8
  %5 = mul i64 %4, 12
  %6 = add i64 %5, 12
  %7 = tail call noalias ptr @SDL_malloc_REAL(i64 noundef %6) #8
  %.not = icmp eq ptr %7, null
  br i1 %.not, label %75, label %.preheader

.preheader:                                       ; preds = %1
  %8 = call i32 @SDL_StepUTF8_REAL(ptr noundef nonnull %2, ptr noundef null) #8
  %.not3340 = icmp eq i32 %8, 0
  br i1 %.not3340, label %._crit_edge44, label %.lr.ph43

.lr.ph43:                                         ; preds = %.preheader, %._crit_edge
  %9 = phi i32 [ %12, %._crit_edge ], [ %8, %.preheader ]
  %.02642 = phi i64 [ %.1.lcssa, %._crit_edge ], [ %6, %.preheader ]
  %.02741 = phi ptr [ %.128.lcssa, %._crit_edge ], [ %7, %.preheader ]
  call void @llvm.lifetime.start.p0(i64 12, ptr nonnull %3) #8
  %10 = call i32 @SDL_CaseFoldUnicode(i32 noundef %9, ptr noundef nonnull %3) #8
  %11 = icmp sgt i32 %10, 0
  br i1 %11, label %.lr.ph.preheader, label %._crit_edge

.lr.ph.preheader:                                 ; preds = %.lr.ph43
  %wide.trip.count = zext nneg i32 %10 to i64
  br label %.lr.ph

._crit_edge:                                      ; preds = %EncodeCodepointToUtf8.exit, %.lr.ph43
  %.128.lcssa = phi ptr [ %.02741, %.lr.ph43 ], [ %70, %EncodeCodepointToUtf8.exit ]
  %.1.lcssa = phi i64 [ %.02642, %.lr.ph43 ], [ %69, %EncodeCodepointToUtf8.exit ]
  call void @llvm.lifetime.end.p0(i64 12, ptr nonnull %3) #8
  %12 = call i32 @SDL_StepUTF8_REAL(ptr noundef nonnull %2, ptr noundef null) #8
  %.not33 = icmp eq i32 %12, 0
  br i1 %.not33, label %._crit_edge44, label %.lr.ph43, !llvm.loop !7

.lr.ph:                                           ; preds = %.lr.ph.preheader, %EncodeCodepointToUtf8.exit
  %indvars.iv = phi i64 [ 0, %.lr.ph.preheader ], [ %indvars.iv.next, %EncodeCodepointToUtf8.exit ]
  %.137 = phi i64 [ %.02642, %.lr.ph.preheader ], [ %69, %EncodeCodepointToUtf8.exit ]
  %.12836 = phi ptr [ %.02741, %.lr.ph.preheader ], [ %70, %EncodeCodepointToUtf8.exit ]
  %13 = getelementptr inbounds nuw [3 x i32], ptr %3, i64 0, i64 %indvars.iv
  %14 = load i32, ptr %13, align 4
  %15 = icmp ult i32 %14, 128
  br i1 %15, label %16, label %19

16:                                               ; preds = %.lr.ph
  %.not.i = icmp eq i64 %.137, 0
  br i1 %.not.i, label %EncodeCodepointToUtf8.exit, label %17

17:                                               ; preds = %16
  %18 = trunc nuw nsw i32 %14 to i8
  store i8 %18, ptr %.12836, align 1
  br label %EncodeCodepointToUtf8.exit

19:                                               ; preds = %.lr.ph
  %20 = icmp ult i32 %14, 2048
  br i1 %20, label %21, label %31

21:                                               ; preds = %19
  %22 = icmp ugt i64 %.137, 1
  br i1 %22, label %23, label %EncodeCodepointToUtf8.exit

23:                                               ; preds = %21
  %24 = lshr i32 %14, 6
  %25 = trunc nuw nsw i32 %24 to i8
  %26 = or disjoint i8 %25, -64
  store i8 %26, ptr %.12836, align 1
  %27 = trunc i32 %14 to i8
  %28 = and i8 %27, 63
  %29 = or disjoint i8 %28, -128
  %30 = getelementptr inbounds nuw i8, ptr %.12836, i64 1
  store i8 %29, ptr %30, align 1
  br label %EncodeCodepointToUtf8.exit

31:                                               ; preds = %19
  %32 = icmp ult i32 %14, 65536
  br i1 %32, label %33, label %48

33:                                               ; preds = %31
  %34 = icmp ugt i64 %.137, 2
  br i1 %34, label %35, label %EncodeCodepointToUtf8.exit

35:                                               ; preds = %33
  %36 = lshr i32 %14, 12
  %37 = trunc nuw nsw i32 %36 to i8
  %38 = or disjoint i8 %37, -32
  store i8 %38, ptr %.12836, align 1
  %39 = lshr i32 %14, 6
  %40 = trunc i32 %39 to i8
  %41 = and i8 %40, 63
  %42 = or disjoint i8 %41, -128
  %43 = getelementptr inbounds nuw i8, ptr %.12836, i64 1
  store i8 %42, ptr %43, align 1
  %44 = trunc i32 %14 to i8
  %45 = and i8 %44, 63
  %46 = or disjoint i8 %45, -128
  %47 = getelementptr inbounds nuw i8, ptr %.12836, i64 2
  store i8 %46, ptr %47, align 1
  br label %EncodeCodepointToUtf8.exit

48:                                               ; preds = %31
  %49 = icmp ult i32 %14, 1114112
  %50 = icmp ugt i64 %.137, 3
  %or.cond.i = and i1 %50, %49
  br i1 %or.cond.i, label %51, label %EncodeCodepointToUtf8.exit

51:                                               ; preds = %48
  %52 = lshr i32 %14, 18
  %53 = trunc nuw nsw i32 %52 to i8
  %54 = or disjoint i8 %53, -16
  store i8 %54, ptr %.12836, align 1
  %55 = lshr i32 %14, 12
  %56 = trunc i32 %55 to i8
  %57 = and i8 %56, 63
  %58 = or disjoint i8 %57, -128
  %59 = getelementptr inbounds nuw i8, ptr %.12836, i64 1
  store i8 %58, ptr %59, align 1
  %60 = lshr i32 %14, 6
  %61 = trunc i32 %60 to i8
  %62 = and i8 %61, 63
  %63 = or disjoint i8 %62, -128
  %64 = getelementptr inbounds nuw i8, ptr %.12836, i64 2
  store i8 %63, ptr %64, align 1
  %65 = trunc i32 %14 to i8
  %66 = and i8 %65, 63
  %67 = or disjoint i8 %66, -128
  %68 = getelementptr inbounds nuw i8, ptr %.12836, i64 3
  store i8 %67, ptr %68, align 1
  br label %EncodeCodepointToUtf8.exit

EncodeCodepointToUtf8.exit:                       ; preds = %16, %17, %21, %23, %33, %35, %48, %51
  %.0.i = phi i64 [ 1, %17 ], [ 2, %23 ], [ 3, %35 ], [ 4, %51 ], [ 0, %21 ], [ 0, %48 ], [ 0, %33 ], [ 0, %16 ]
  %69 = sub i64 %.137, %.0.i
  %70 = getelementptr inbounds nuw i8, ptr %.12836, i64 %.0.i
  %indvars.iv.next = add nuw nsw i64 %indvars.iv, 1
  %exitcond.not = icmp eq i64 %indvars.iv.next, %wide.trip.count
  br i1 %exitcond.not, label %._crit_edge, label %.lr.ph, !llvm.loop !8

._crit_edge44:                                    ; preds = %._crit_edge, %.preheader
  %.027.lcssa = phi ptr [ %7, %.preheader ], [ %.128.lcssa, %._crit_edge ]
  %.026.lcssa = phi i64 [ %6, %.preheader ], [ %.1.lcssa, %._crit_edge ]
  %71 = add i64 %.026.lcssa, -1
  store i8 0, ptr %.027.lcssa, align 1
  %.not34 = icmp eq i64 %71, 0
  br i1 %.not34, label %75, label %72

72:                                               ; preds = %._crit_edge44
  %73 = sub i64 %6, %71
  %74 = call ptr @SDL_realloc_REAL(ptr noundef nonnull %7, i64 noundef %73) #9
  %.not35 = icmp eq ptr %74, null
  %spec.select = select i1 %.not35, ptr %7, ptr %74
  br label %75

75:                                               ; preds = %72, %._crit_edge44, %1
  %.0 = phi ptr [ null, %1 ], [ %7, %._crit_edge44 ], [ %spec.select, %72 ]
  ret ptr %.0
}